target datalayout = "e-m:e-p270:32:32-p271:32:32-p272:64:64-i64:64-i128:128-f80:128-n8:16:32:64-S128"
target triple = "x86_64-pc-linux-gnu"

%struct.redisObject = type { i32, i32, ptr }

; Function Attrs: nounwind uwtable
define dso_local ptr @setTypePopRandom(ptr noundef %0) #0 {
  %2 = alloca ptr, align 8
  %3 = alloca ptr, align 8
  %4 = alloca i32, align 4
  %5 = alloca ptr, align 8
  %6 = alloca i32, align 4
  %7 = alloca i64, align 8
  %8 = alloca ptr, align 8
  %9 = alloca ptr, align 8
  %10 = alloca i64, align 8
  %11 = alloca i64, align 8
  %12 = alloca i32, align 4
  store ptr %0, ptr %2, align 8, !tbaa !41
  call void @llvm.lifetime.start.p0(i64 8, ptr %3) #10
  %13 = load ptr, ptr %2, align 8, !tbaa !41
  %14 = load i32, ptr %13, align 8
  %15 = lshr i32 %14, 4
  %16 = and i32 %15, 15
  %17 = icmp eq i32 %16, 11
  br i1 %17, label %18, label %47

18:                                               ; preds = %1
  call void @llvm.lifetime.start.p0(i64 4, ptr %4) #10
  store i32 0, ptr %4, align 4, !tbaa !45
  call void @llvm.lifetime.start.p0(i64 8, ptr %5) #10
  %19 = load ptr, ptr %2, align 8, !tbaa !41
  %20 = getelementptr inbounds nuw %struct.redisObject, ptr %19, i32 0, i32 2
  %21 = load ptr, ptr %20, align 8, !tbaa !43
  %22 = load ptr, ptr %2, align 8, !tbaa !41
  %23 = getelementptr inbounds nuw %struct.redisObject, ptr %22, i32 0, i32 2
  %24 = load ptr, ptr %23, align 8, !tbaa !43
  %25 = call ptr @lpFirst(ptr noundef %24)
  %26 = call ptr @lpNextRandom(ptr noundef %21, ptr noundef %25, ptr noundef %4, i32 noundef 1, i32 noundef 1)
  store ptr %26, ptr %5, align 8, !tbaa !5
  call void @llvm.lifetime.start.p0(i64 4, ptr %6) #10
  store i32 0, ptr %6, align 4, !tbaa !45
  call void @llvm.lifetime.start.p0(i64 8, ptr %7) #10
  store i64 0, ptr %7, align 8, !tbaa !53
  call void @llvm.lifetime.start.p0(i64 8, ptr %8) #10
  %27 = load ptr, ptr %5, align 8, !tbaa !5
  %28 = call ptr @lpGetValue(ptr noundef %27, ptr noundef %6, ptr noundef %7)
  store ptr %28, ptr %8, align 8, !tbaa !5
  %29 = load ptr, ptr %8, align 8, !tbaa !5
  %30 = icmp ne ptr %29, null
  br i1 %30, label %31, label %36

31:                                               ; preds = %18
  %32 = load ptr, ptr %8, align 8, !tbaa !5
  %33 = load i32, ptr %6, align 4, !tbaa !45
  %34 = zext i32 %33 to i64
  %35 = call ptr @createStringObject(ptr noundef %32, i64 noundef %34)
  store ptr %35, ptr %3, align 8, !tbaa !41
  br label %39

36:                                               ; preds = %18
  %37 = load i64, ptr %7, align 8, !tbaa !53
  %38 = call ptr @createStringObjectFromLongLong(i64 noundef %37)
  store ptr %38, ptr %3, align 8, !tbaa !41
  br label %39

39:                                               ; preds = %36, %31
  %40 = load ptr, ptr %2, align 8, !tbaa !41
  %41 = getelementptr inbounds nuw %struct.redisObject, ptr %40, i32 0, i32 2
  %42 = load ptr, ptr %41, align 8, !tbaa !43
  %43 = load ptr, ptr %5, align 8, !tbaa !5
  %44 = call ptr @lpDelete(ptr noundef %42, ptr noundef %43, ptr noundef null)
  %45 = load ptr, ptr %2, align 8, !tbaa !41
  %46 = getelementptr inbounds nuw %struct.redisObject, ptr %45, i32 0, i32 2
  store ptr %44, ptr %46, align 8, !tbaa !43
  call void @llvm.lifetime.end.p0(i64 8, ptr %8) #10
  call void @llvm.lifetime.end.p0(i64 8, ptr %7) #10
  call void @llvm.lifetime.end.p0(i64 4, ptr %6) #10
  call void @llvm.lifetime.end.p0(i64 8, ptr %5) #10
  call void @llvm.lifetime.end.p0(i64 4, ptr %4) #10
  br label %68

47:                                               ; preds = %1
  call void @llvm.lifetime.start.p0(i64 8, ptr %9) #10
  call void @llvm.lifetime.start.p0(i64 8, ptr %10) #10
  store i64 0, ptr %10, align 8, !tbaa !10
  call void @llvm.lifetime.start.p0(i64 8, ptr %11) #10
  store i64 0, ptr %11, align 8, !tbaa !10
  call void @llvm.lifetime.start.p0(i64 4, ptr %12) #10
  %48 = load ptr, ptr %2, align 8, !tbaa !41
  %49 = call i32 @setTypeRandomElement(ptr noundef %48, ptr noundef %9, ptr noundef %10, ptr noundef %11)
  store i32 %49, ptr %12, align 4, !tbaa !45
  %50 = load ptr, ptr %9, align 8, !tbaa !5
  %51 = icmp ne ptr %50, null
  br i1 %51, label %52, label %56

52:                                               ; preds = %47
  %53 = load ptr, ptr %9, align 8, !tbaa !5
  %54 = load i64, ptr %10, align 8, !tbaa !10
  %55 = call ptr @createStringObject(ptr noundef %53, i64 noundef %54)
  store ptr %55, ptr %3, align 8, !tbaa !41
  br label %59

56:                                               ; preds = %47
  %57 = load i64, ptr %11, align 8, !tbaa !10
  %58 = call ptr @createStringObjectFromLongLong(i64 noundef %57)
  store ptr %58, ptr %3, align 8, !tbaa !41
  br label %59

59:                                               ; preds = %56, %52
  %60 = load ptr, ptr %2, align 8, !tbaa !41
  %61 = load ptr, ptr %9, align 8, !tbaa !5
  %62 = load i64, ptr %10, align 8, !tbaa !10
  %63 = load i64, ptr %11, align 8, !tbaa !10
  %64 = load i32, ptr %12, align 4, !tbaa !45
  %65 = icmp eq i32 %64, 2
  %66 = zext i1 %65 to i32
  %67 = call i32 @setTypeRemoveAux(ptr noundef %60, ptr noundef %61, i64 noundef %62, i64 noundef %63, i32 noundef %66)
  call void @llvm.lifetime.end.p0(i64 4, ptr %12) #10
  call void @llvm.lifetime.end.p0(i64 8, ptr %11) #10
  call void @llvm.lifetime.end.p0(i64 8, ptr %10) #10
  call void @llvm.lifetime.end.p0(i64 8, ptr %9) #10
  br label %68

68:                                               ; preds = %59, %39
  %69 = load ptr, ptr %3, align 8, !tbaa !41
  call void @llvm.lifetime.end.p0(i64 8, ptr %3) #10
  ret ptr %69
}