; Function Attrs: nounwind uwtable
define dso_local ptr @setTypePopRandom(ptr noundef captures(none) %0) local_unnamed_addr #0 {
  %2 = alloca i32, align 4
  %3 = alloca i32, align 4
  %4 = alloca i64, align 8
  %5 = alloca ptr, align 8
  %6 = alloca i64, align 8
  %7 = alloca i64, align 8
  %8 = load i32, ptr %0, align 8
  %9 = and i32 %8, 240
  %10 = icmp eq i32 %9, 176
  br i1 %10, label %11, label %27

11:                                               ; preds = %1
  call void @llvm.lifetime.start.p0(i64 4, ptr nonnull %2) #10
  store i32 0, ptr %2, align 4, !tbaa !57
  %12 = getelementptr inbounds nuw i8, ptr %0, i64 8
  %13 = load ptr, ptr %12, align 8, !tbaa !38
  %14 = tail call ptr @lpFirst(ptr noundef %13) #10
  %15 = call ptr @lpNextRandom(ptr noundef %13, ptr noundef %14, ptr noundef nonnull %2, i32 noundef 1, i32 noundef 1) #10
  call void @llvm.lifetime.start.p0(i64 4, ptr nonnull %3) #10
  store i32 0, ptr %3, align 4, !tbaa !57
  call void @llvm.lifetime.start.p0(i64 8, ptr nonnull %4) #10
  store i64 0, ptr %4, align 8, !tbaa !58
  %16 = call ptr @lpGetValue(ptr noundef %15, ptr noundef nonnull %3, ptr noundef nonnull %4) #10
  %.not14 = icmp eq ptr %16, null
  br i1 %.not14, label %21, label %17

17:                                               ; preds = %11
  %18 = load i32, ptr %3, align 4, !tbaa !57
  %19 = zext i32 %18 to i64
  %20 = call ptr @createStringObject(ptr noundef nonnull %16, i64 noundef %19) #10
  br label %24

21:                                               ; preds = %11
  %22 = load i64, ptr %4, align 8, !tbaa !58
  %23 = call ptr @createStringObjectFromLongLong(i64 noundef %22) #10
  br label %24

24:                                               ; preds = %21, %17
  %.0 = phi ptr [ %20, %17 ], [ %23, %21 ]
  %25 = load ptr, ptr %12, align 8, !tbaa !38
  %26 = call ptr @lpDelete(ptr noundef %25, ptr noundef %15, ptr noundef null) #10
  store ptr %26, ptr %12, align 8, !tbaa !38
  call void @llvm.lifetime.end.p0(i64 8, ptr nonnull %4) #10
  call void @llvm.lifetime.end.p0(i64 4, ptr nonnull %3) #10
  call void @llvm.lifetime.end.p0(i64 4, ptr nonnull %2) #10
  br label %42

27:                                               ; preds = %1
  call void @llvm.lifetime.start.p0(i64 8, ptr nonnull %5) #10
  call void @llvm.lifetime.start.p0(i64 8, ptr nonnull %6) #10
  store i64 0, ptr %6, align 8, !tbaa !50
  call void @llvm.lifetime.start.p0(i64 8, ptr nonnull %7) #10
  store i64 0, ptr %7, align 8, !tbaa !50
  %28 = call i32 @setTypeRandomElement(ptr noundef nonnull %0, ptr noundef nonnull %5, ptr noundef nonnull %6, ptr noundef nonnull %7)
  %29 = load ptr, ptr %5, align 8, !tbaa !49
  %.not = icmp eq ptr %29, null
  br i1 %.not, label %33, label %30

30:                                               ; preds = %27
  %31 = load i64, ptr %6, align 8, !tbaa !50
  %32 = call ptr @createStringObject(ptr noundef nonnull %29, i64 noundef %31) #10
  br label %36

33:                                               ; preds = %27
  %34 = load i64, ptr %7, align 8, !tbaa !50
  %35 = call ptr @createStringObjectFromLongLong(i64 noundef %34) #10
  %.pre = load i64, ptr %6, align 8, !tbaa !50
  br label %36

36:                                               ; preds = %33, %30
  %37 = phi i64 [ %31, %30 ], [ %.pre, %33 ]
  %.2 = phi ptr [ %32, %30 ], [ %35, %33 ]
  %38 = load i64, ptr %7, align 8, !tbaa !50
  %39 = icmp eq i32 %28, 2
  %40 = zext i1 %39 to i32
  %41 = call i32 @setTypeRemoveAux(ptr noundef nonnull %0, ptr noundef %29, i64 noundef %37, i64 noundef %38, i32 noundef %40)
  call void @llvm.lifetime.end.p0(i64 8, ptr nonnull %7) #10
  call void @llvm.lifetime.end.p0(i64 8, ptr nonnull %6) #10
  call void @llvm.lifetime.end.p0(i64 8, ptr nonnull %5) #10
  br label %42

42:                                               ; preds = %36, %24
  %.1 = phi ptr [ %.0, %24 ], [ %.2, %36 ]
  ret ptr %.1
}